target datalayout = "e-m:e-p270:32:32-p271:32:32-p272:64:64-i64:64-i128:128-f80:128-n8:16:32:64-S128"
target triple = "x86_64-pc-linux-gnu"

%union.pthread_mutex_t = type { %struct.__pthread_mutex_s }
%struct.__pthread_mutex_s = type { i32, i32, i32, i32, i32, i16, i16, %struct.__pthread_internal_list }
%struct.__pthread_internal_list = type { ptr, ptr }
%struct.pmix_tma = type { ptr, ptr, ptr, ptr, ptr, ptr, ptr, ptr }
%struct.pmix_proc = type { [256 x i8], i32 }
%struct.timeval = type { i64, i64 }
%struct.pmix_object_t = type { %union.pthread_mutex_t, ptr, i32, %struct.pmix_tma }
%struct.pmix_globals_t = type { i32, %struct.pmix_proc, %struct.pmix_value, %struct.pmix_value, ptr, i32, i32, ptr, i32, i32, i32, i32, i32, ptr, ptr, i32, %struct.pmix_events_t, i8, i8, %struct.timeval, %struct.pmix_list_t, %struct.pmix_pointer_array_t, i32, i32, %struct.pmix_hotel_t, i8, %struct.pmix_list_t, i8, i8, i8, i64, %struct.pmix_list_t, %struct.pmix_topology_t, %struct.pmix_cpuset_t, i8, i8, %struct.pmix_iof_flags_t, %struct.pmix_keyindex_t }
%struct.pmix_value = type { i16, %union.anon.9 }
%union.anon.9 = type { %struct.pmix_envar_t }
%struct.pmix_envar_t = type { ptr, ptr, i8 }
%struct.pmix_events_t = type { %struct.pmix_object_t, i64, ptr, ptr, %struct.pmix_list_t, %struct.pmix_list_t, %struct.pmix_list_t, %struct.pmix_list_t }
%struct.pmix_pointer_array_t = type { %struct.pmix_object_t, i32, i32, i32, i32, i32, ptr, ptr }
%struct.pmix_hotel_t = type { %struct.pmix_object_t, i32, ptr, %struct.timeval, ptr, ptr, ptr, ptr, i32 }
%struct.pmix_list_t = type { %struct.pmix_object_t, %struct.pmix_list_item_t, i64 }
%struct.pmix_list_item_t = type { %struct.pmix_object_t, ptr, ptr, i32 }
%struct.pmix_topology_t = type { ptr, ptr }
%struct.pmix_cpuset_t = type { ptr, ptr }
%struct.pmix_iof_flags_t = type { i8, i8, i8, i8, i8, i8, i8, ptr, ptr, i8, i8, i8, i8, i8, i8 }
%struct.pmix_keyindex_t = type { %struct.pmix_object_t, ptr, i32 }
%struct.pmix_info = type { [512 x i8], i32, %struct.pmix_value }
%struct.mydata_t = type { ptr, i64 }

@pmix_globals = external global %struct.pmix_globals_t, align 8
@.str.34 = private unnamed_addr constant [14 x i8] c"pmix.evnondef\00", align 1
@.str.49 = private unnamed_addr constant [15 x i8] c"pmix.pgm.model\00", align 1
@.str.50 = private unnamed_addr constant [14 x i8] c"pmix.mdl.name\00", align 1
@.str.51 = private unnamed_addr constant [13 x i8] c"pmix.mld.vrs\00", align 1
@.str.52 = private unnamed_addr constant [13 x i8] c"pmix.threads\00", align 1

; Function Attrs: nounwind uwtable
define internal void @_check_for_notify(ptr noundef %0, i64 noundef %1) #0 {
  %3 = alloca ptr, align 8
  %4 = alloca i64, align 8
  %5 = alloca ptr, align 8
  %6 = alloca i64, align 8
  %7 = alloca i64, align 8
  %8 = alloca ptr, align 8
  %9 = alloca ptr, align 8
  %10 = alloca ptr, align 8
  %11 = alloca ptr, align 8
  %12 = alloca i32, align 4
  store ptr %0, ptr %3, align 8, !tbaa !8
  store i64 %1, ptr %4, align 8, !tbaa !10
  call void @llvm.lifetime.start.p0(i64 8, ptr %5) #12
  call void @llvm.lifetime.start.p0(i64 8, ptr %6) #12
  call void @llvm.lifetime.start.p0(i64 8, ptr %7) #12
  store i64 0, ptr %7, align 8, !tbaa !10
  call void @llvm.lifetime.start.p0(i64 8, ptr %8) #12
  store ptr null, ptr %8, align 8, !tbaa !8
  call void @llvm.lifetime.start.p0(i64 8, ptr %9) #12
  store ptr null, ptr %9, align 8, !tbaa !8
  call void @llvm.lifetime.start.p0(i64 8, ptr %10) #12
  store ptr null, ptr %10, align 8, !tbaa !8
  call void @llvm.lifetime.start.p0(i64 8, ptr %11) #12
  store ptr null, ptr %11, align 8, !tbaa !8
  store i64 0, ptr %6, align 8, !tbaa !10
  br label %13

13:                                               ; preds = %77, %2
  %14 = load i64, ptr %6, align 8, !tbaa !10
  %15 = load i64, ptr %4, align 8, !tbaa !10
  %16 = icmp ult i64 %14, %15
  br i1 %16, label %17, label %80

17:                                               ; preds = %13
  %18 = load ptr, ptr %3, align 8, !tbaa !8
  %19 = load i64, ptr %6, align 8, !tbaa !10
  %20 = getelementptr inbounds nuw %struct.pmix_info, ptr %18, i64 %19
  %21 = getelementptr inbounds nuw %struct.pmix_info, ptr %20, i32 0, i32 0
  %22 = getelementptr inbounds [512 x i8], ptr %21, i64 0, i64 0
  %23 = call i32 @strncmp(ptr noundef %22, ptr noundef @.str.49, i64 noundef 511) #13
  %24 = icmp eq i32 0, %23
  br i1 %24, label %25, label %31

25:                                               ; preds = %17
  %26 = load ptr, ptr %3, align 8, !tbaa !8
  %27 = load i64, ptr %6, align 8, !tbaa !10
  %28 = getelementptr inbounds nuw %struct.pmix_info, ptr %26, i64 %27
  store ptr %28, ptr %8, align 8, !tbaa !8
  %29 = load i64, ptr %7, align 8, !tbaa !10
  %30 = add i64 %29, 1
  store i64 %30, ptr %7, align 8, !tbaa !10
  br label %76

31:                                               ; preds = %17
  %32 = load ptr, ptr %3, align 8, !tbaa !8
  %33 = load i64, ptr %6, align 8, !tbaa !10
  %34 = getelementptr inbounds nuw %struct.pmix_info, ptr %32, i64 %33
  %35 = getelementptr inbounds nuw %struct.pmix_info, ptr %34, i32 0, i32 0
  %36 = getelementptr inbounds [512 x i8], ptr %35, i64 0, i64 0
  %37 = call i32 @strncmp(ptr noundef %36, ptr noundef @.str.50, i64 noundef 511) #13
  %38 = icmp eq i32 0, %37
  br i1 %38, label %39, label %45

39:                                               ; preds = %31
  %40 = load ptr, ptr %3, align 8, !tbaa !8
  %41 = load i64, ptr %6, align 8, !tbaa !10
  %42 = getelementptr inbounds nuw %struct.pmix_info, ptr %40, i64 %41
  store ptr %42, ptr %9, align 8, !tbaa !8
  %43 = load i64, ptr %7, align 8, !tbaa !10
  %44 = add i64 %43, 1
  store i64 %44, ptr %7, align 8, !tbaa !10
  br label %75

45:                                               ; preds = %31
  %46 = load ptr, ptr %3, align 8, !tbaa !8
  %47 = load i64, ptr %6, align 8, !tbaa !10
  %48 = getelementptr inbounds nuw %struct.pmix_info, ptr %46, i64 %47
  %49 = getelementptr inbounds nuw %struct.pmix_info, ptr %48, i32 0, i32 0
  %50 = getelementptr inbounds [512 x i8], ptr %49, i64 0, i64 0
  %51 = call i32 @strncmp(ptr noundef %50, ptr noundef @.str.51, i64 noundef 511) #13
  %52 = icmp eq i32 0, %51
  br i1 %52, label %53, label %59

53:                                               ; preds = %45
  %54 = load ptr, ptr %3, align 8, !tbaa !8
  %55 = load i64, ptr %6, align 8, !tbaa !10
  %56 = getelementptr inbounds nuw %struct.pmix_info, ptr %54, i64 %55
  store ptr %56, ptr %10, align 8, !tbaa !8
  %57 = load i64, ptr %7, align 8, !tbaa !10
  %58 = add i64 %57, 1
  store i64 %58, ptr %7, align 8, !tbaa !10
  br label %74

59:                                               ; preds = %45
  %60 = load ptr, ptr %3, align 8, !tbaa !8
  %61 = load i64, ptr %6, align 8, !tbaa !10
  %62 = getelementptr inbounds nuw %struct.pmix_info, ptr %60, i64 %61
  %63 = getelementptr inbounds nuw %struct.pmix_info, ptr %62, i32 0, i32 0
  %64 = getelementptr inbounds [512 x i8], ptr %63, i64 0, i64 0
  %65 = call i32 @strncmp(ptr noundef %64, ptr noundef @.str.52, i64 noundef 511) #13
  %66 = icmp eq i32 0, %65
  br i1 %66, label %67, label %73

67:                                               ; preds = %59
  %68 = load ptr, ptr %3, align 8, !tbaa !8
  %69 = load i64, ptr %6, align 8, !tbaa !10
  %70 = getelementptr inbounds nuw %struct.pmix_info, ptr %68, i64 %69
  store ptr %70, ptr %11, align 8, !tbaa !8
  %71 = load i64, ptr %7, align 8, !tbaa !10
  %72 = add i64 %71, 1
  store i64 %72, ptr %7, align 8, !tbaa !10
  br label %73

73:                                               ; preds = %67, %59
  br label %74

74:                                               ; preds = %73, %53
  br label %75

75:                                               ; preds = %74, %39
  br label %76

76:                                               ; preds = %75, %25
  br label %77

77:                                               ; preds = %76
  %78 = load i64, ptr %6, align 8, !tbaa !10
  %79 = add i64 %78, 1
  store i64 %79, ptr %6, align 8, !tbaa !10
  br label %13, !llvm.loop !160

80:                                               ; preds = %13
  %81 = load i64, ptr %7, align 8, !tbaa !10
  %82 = icmp ult i64 0, %81
  br i1 %82, label %83, label %171

83:                                               ; preds = %80
  %84 = call noalias ptr @malloc(i64 noundef 16) #14
  store ptr %84, ptr %5, align 8, !tbaa !76
  %85 = load ptr, ptr %5, align 8, !tbaa !76
  %86 = icmp eq ptr null, %85
  br i1 %86, label %87, label %88

87:                                               ; preds = %83
  store i32 1, ptr %12, align 4
  br label %172

88:                                               ; preds = %83
  %89 = load i64, ptr %7, align 8, !tbaa !10
  %90 = add i64 %89, 1
  %91 = call ptr @PMIx_Info_create(i64 noundef %90)
  %92 = load ptr, ptr %5, align 8, !tbaa !76
  %93 = getelementptr inbounds nuw %struct.mydata_t, ptr %92, i32 0, i32 0
  store ptr %91, ptr %93, align 8, !tbaa !161
  %94 = load ptr, ptr %5, align 8, !tbaa !76
  %95 = getelementptr inbounds nuw %struct.mydata_t, ptr %94, i32 0, i32 0
  %96 = load ptr, ptr %95, align 8, !tbaa !161
  %97 = icmp eq ptr null, %96
  br i1 %97, label %98, label %100

98:                                               ; preds = %88
  %99 = load ptr, ptr %5, align 8, !tbaa !76
  call void @free(ptr noundef %99) #12
  store i32 1, ptr %12, align 4
  br label %172

100:                                              ; preds = %88
  %101 = load i64, ptr %7, align 8, !tbaa !10
  %102 = add i64 %101, 1
  %103 = load ptr, ptr %5, align 8, !tbaa !76
  %104 = getelementptr inbounds nuw %struct.mydata_t, ptr %103, i32 0, i32 1
  store i64 %102, ptr %104, align 8, !tbaa !163
  store i64 0, ptr %6, align 8, !tbaa !10
  %105 = load ptr, ptr %8, align 8, !tbaa !8
  %106 = icmp ne ptr null, %105
  br i1 %106, label %107, label %117

107:                                              ; preds = %100
  %108 = load ptr, ptr %5, align 8, !tbaa !76
  %109 = getelementptr inbounds nuw %struct.mydata_t, ptr %108, i32 0, i32 0
  %110 = load ptr, ptr %109, align 8, !tbaa !161
  %111 = load i64, ptr %6, align 8, !tbaa !10
  %112 = getelementptr inbounds nuw %struct.pmix_info, ptr %110, i64 %111
  %113 = load ptr, ptr %8, align 8, !tbaa !8
  %114 = call i32 @PMIx_Info_xfer(ptr noundef %112, ptr noundef %113)
  %115 = load i64, ptr %6, align 8, !tbaa !10
  %116 = add i64 %115, 1
  store i64 %116, ptr %6, align 8, !tbaa !10
  br label %117

117:                                              ; preds = %107, %100
  %118 = load ptr, ptr %9, align 8, !tbaa !8
  %119 = icmp ne ptr null, %118
  br i1 %119, label %120, label %130

120:                                              ; preds = %117
  %121 = load ptr, ptr %5, align 8, !tbaa !76
  %122 = getelementptr inbounds nuw %struct.mydata_t, ptr %121, i32 0, i32 0
  %123 = load ptr, ptr %122, align 8, !tbaa !161
  %124 = load i64, ptr %6, align 8, !tbaa !10
  %125 = getelementptr inbounds nuw %struct.pmix_info, ptr %123, i64 %124
  %126 = load ptr, ptr %9, align 8, !tbaa !8
  %127 = call i32 @PMIx_Info_xfer(ptr noundef %125, ptr noundef %126)
  %128 = load i64, ptr %6, align 8, !tbaa !10
  %129 = add i64 %128, 1
  store i64 %129, ptr %6, align 8, !tbaa !10
  br label %130

130:                                              ; preds = %120, %117
  %131 = load ptr, ptr %10, align 8, !tbaa !8
  %132 = icmp ne ptr null, %131
  br i1 %132, label %133, label %143

133:                                              ; preds = %130
  %134 = load ptr, ptr %5, align 8, !tbaa !76
  %135 = getelementptr inbounds nuw %struct.mydata_t, ptr %134, i32 0, i32 0
  %136 = load ptr, ptr %135, align 8, !tbaa !161
  %137 = load i64, ptr %6, align 8, !tbaa !10
  %138 = getelementptr inbounds nuw %struct.pmix_info, ptr %136, i64 %137
  %139 = load ptr, ptr %10, align 8, !tbaa !8
  %140 = call i32 @PMIx_Info_xfer(ptr noundef %138, ptr noundef %139)
  %141 = load i64, ptr %6, align 8, !tbaa !10
  %142 = add i64 %141, 1
  store i64 %142, ptr %6, align 8, !tbaa !10
  br label %143

143:                                              ; preds = %133, %130
  %144 = load ptr, ptr %11, align 8, !tbaa !8
  %145 = icmp ne ptr null, %144
  br i1 %145, label %146, label %156

146:                                              ; preds = %143
  %147 = load ptr, ptr %5, align 8, !tbaa !76
  %148 = getelementptr inbounds nuw %struct.mydata_t, ptr %147, i32 0, i32 0
  %149 = load ptr, ptr %148, align 8, !tbaa !161
  %150 = load i64, ptr %6, align 8, !tbaa !10
  %151 = getelementptr inbounds nuw %struct.pmix_info, ptr %149, i64 %150
  %152 = load ptr, ptr %11, align 8, !tbaa !8
  %153 = call i32 @PMIx_Info_xfer(ptr noundef %151, ptr noundef %152)
  %154 = load i64, ptr %6, align 8, !tbaa !10
  %155 = add i64 %154, 1
  store i64 %155, ptr %6, align 8, !tbaa !10
  br label %156

156:                                              ; preds = %146, %143
  %157 = load ptr, ptr %5, align 8, !tbaa !76
  %158 = getelementptr inbounds nuw %struct.mydata_t, ptr %157, i32 0, i32 0
  %159 = load ptr, ptr %158, align 8, !tbaa !161
  %160 = load i64, ptr %6, align 8, !tbaa !10
  %161 = getelementptr inbounds nuw %struct.pmix_info, ptr %159, i64 %160
  %162 = call i32 @PMIx_Info_load(ptr noundef %161, ptr noundef @.str.34, ptr noundef null, i16 noundef zeroext 1)
  %163 = load ptr, ptr %5, align 8, !tbaa !76
  %164 = getelementptr inbounds nuw %struct.mydata_t, ptr %163, i32 0, i32 0
  %165 = load ptr, ptr %164, align 8, !tbaa !161
  %166 = load ptr, ptr %5, align 8, !tbaa !76
  %167 = getelementptr inbounds nuw %struct.mydata_t, ptr %166, i32 0, i32 1
  %168 = load i64, ptr %167, align 8, !tbaa !163
  %169 = load ptr, ptr %5, align 8, !tbaa !76
  %170 = call i32 @PMIx_Notify_event(i32 noundef -147, ptr noundef getelementptr inbounds nuw (%struct.pmix_globals_t, ptr @pmix_globals, i32 0, i32 1), i8 noundef zeroext 7, ptr noundef %165, i64 noundef %168, ptr noundef @release_info, ptr noundef %169)
  br label %171

171:                                              ; preds = %156, %80
  store i32 0, ptr %12, align 4
  br label %172

172:                                              ; preds = %171, %98, %87
  call void @llvm.lifetime.end.p0(i64 8, ptr %11) #12
  call void @llvm.lifetime.end.p0(i64 8, ptr %10) #12
  call void @llvm.lifetime.end.p0(i64 8, ptr %9) #12
  call void @llvm.lifetime.end.p0(i64 8, ptr %8) #12
  call void @llvm.lifetime.end.p0(i64 8, ptr %7) #12
  call void @llvm.lifetime.end.p0(i64 8, ptr %6) #12
  call void @llvm.lifetime.end.p0(i64 8, ptr %5) #12
  %173 = load i32, ptr %12, align 4
  switch i32 %173, label %175 [
    i32 0, label %174
    i32 1, label %174
  ]

174:                                              ; preds = %172, %172
  ret void

175:                                              ; preds = %172
  unreachable
}