; Function Attrs: nounwind uwtable
define internal fastcc void @_check_for_notify(ptr noundef nonnull %0, i64 noundef %1) unnamed_addr #1 {
  %.not81 = icmp eq i64 %1, 0
  br i1 %.not81, label %._crit_edge.thread, label %.lr.ph

.lr.ph:                                           ; preds = %2, %22
  %.076 = phi ptr [ %.1, %22 ], [ null, %2 ]
  %.05575 = phi ptr [ %.156, %22 ], [ null, %2 ]
  %.05774 = phi ptr [ %.158, %22 ], [ null, %2 ]
  %.05973 = phi ptr [ %.160, %22 ], [ null, %2 ]
  %.06172 = phi i64 [ %.162, %22 ], [ 0, %2 ]
  %.06371 = phi i64 [ %23, %22 ], [ 0, %2 ]
  %3 = getelementptr inbounds nuw %struct.pmix_info, ptr %0, i64 %.06371
  %4 = tail call i32 @strncmp(ptr noundef nonnull dereferenceable(1) %3, ptr noundef nonnull dereferenceable(15) @.str.49, i64 noundef 511) #19
  %5 = icmp eq i32 %4, 0
  br i1 %5, label %6, label %8

6:                                                ; preds = %.lr.ph
  %7 = add i64 %.06172, 1
  br label %22

8:                                                ; preds = %.lr.ph
  %9 = tail call i32 @strncmp(ptr noundef nonnull dereferenceable(1) %3, ptr noundef nonnull dereferenceable(14) @.str.50, i64 noundef 511) #19
  %10 = icmp eq i32 %9, 0
  br i1 %10, label %11, label %13

11:                                               ; preds = %8
  %12 = add i64 %.06172, 1
  br label %22

13:                                               ; preds = %8
  %14 = tail call i32 @strncmp(ptr noundef nonnull dereferenceable(1) %3, ptr noundef nonnull dereferenceable(13) @.str.51, i64 noundef 511) #19
  %15 = icmp eq i32 %14, 0
  br i1 %15, label %16, label %18

16:                                               ; preds = %13
  %17 = add i64 %.06172, 1
  br label %22

18:                                               ; preds = %13
  %19 = tail call i32 @strncmp(ptr noundef nonnull dereferenceable(1) %3, ptr noundef nonnull dereferenceable(13) @.str.52, i64 noundef 511) #19
  %20 = icmp eq i32 %19, 0
  %21 = zext i1 %20 to i64
  %spec.select = add i64 %.06172, %21
  %spec.select70 = select i1 %20, ptr %3, ptr %.076
  br label %22

22:                                               ; preds = %18, %6, %16, %11
  %.162 = phi i64 [ %7, %6 ], [ %12, %11 ], [ %17, %16 ], [ %spec.select, %18 ]
  %.160 = phi ptr [ %3, %6 ], [ %.05973, %11 ], [ %.05973, %16 ], [ %.05973, %18 ]
  %.158 = phi ptr [ %.05774, %6 ], [ %3, %11 ], [ %.05774, %16 ], [ %.05774, %18 ]
  %.156 = phi ptr [ %.05575, %6 ], [ %.05575, %11 ], [ %3, %16 ], [ %.05575, %18 ]
  %.1 = phi ptr [ %.076, %6 ], [ %.076, %11 ], [ %.076, %16 ], [ %spec.select70, %18 ]
  %23 = add nuw i64 %.06371, 1
  %exitcond.not = icmp eq i64 %23, %1
  br i1 %exitcond.not, label %._crit_edge, label %.lr.ph, !llvm.loop !161

._crit_edge:                                      ; preds = %22
  %.not = icmp eq i64 %.162, 0
  br i1 %.not, label %._crit_edge.thread, label %24

24:                                               ; preds = %._crit_edge
  %25 = tail call noalias dereferenceable_or_null(16) ptr @malloc(i64 noundef 16) #21
  %26 = icmp eq ptr %25, null
  br i1 %26, label %._crit_edge.thread, label %27

27:                                               ; preds = %24
  %28 = add i64 %.162, 1
  %29 = tail call ptr @PMIx_Info_create(i64 noundef %28) #18
  store ptr %29, ptr %25, align 8, !tbaa !162
  %30 = icmp eq ptr %29, null
  br i1 %30, label %31, label %32

31:                                               ; preds = %27
  tail call void @free(ptr noundef nonnull %25) #18
  br label %._crit_edge.thread

32:                                               ; preds = %27
  %33 = getelementptr inbounds nuw i8, ptr %25, i64 8
  store i64 %28, ptr %33, align 8, !tbaa !164
  %.not66 = icmp eq ptr %.160, null
  br i1 %.not66, label %36, label %34

34:                                               ; preds = %32
  %35 = tail call i32 @PMIx_Info_xfer(ptr noundef nonnull %29, ptr noundef nonnull %.160) #18
  %.pre82.pre83.pre85.pre = load ptr, ptr %25, align 8, !tbaa !162
  br label %36

36:                                               ; preds = %34, %32
  %.pre82.pre83.pre85 = phi ptr [ %.pre82.pre83.pre85.pre, %34 ], [ %29, %32 ]
  %.164 = phi i64 [ 1, %34 ], [ 0, %32 ]
  %.not67 = icmp eq ptr %.158, null
  br i1 %.not67, label %41, label %37

37:                                               ; preds = %36
  %38 = getelementptr inbounds nuw %struct.pmix_info, ptr %.pre82.pre83.pre85, i64 %.164
  %39 = tail call i32 @PMIx_Info_xfer(ptr noundef %38, ptr noundef nonnull %.158) #18
  %40 = add nuw nsw i64 %.164, 1
  %.pre82.pre83.pre = load ptr, ptr %25, align 8, !tbaa !162
  br label %41

41:                                               ; preds = %37, %36
  %.pre82.pre83 = phi ptr [ %.pre82.pre83.pre, %37 ], [ %.pre82.pre83.pre85, %36 ]
  %.2 = phi i64 [ %40, %37 ], [ %.164, %36 ]
  %.not68 = icmp eq ptr %.156, null
  br i1 %.not68, label %46, label %42

42:                                               ; preds = %41
  %43 = getelementptr inbounds nuw %struct.pmix_info, ptr %.pre82.pre83, i64 %.2
  %44 = tail call i32 @PMIx_Info_xfer(ptr noundef %43, ptr noundef nonnull %.156) #18
  %45 = add nuw nsw i64 %.2, 1
  %.pre82.pre = load ptr, ptr %25, align 8, !tbaa !162
  br label %46

46:                                               ; preds = %42, %41
  %.pre82 = phi ptr [ %.pre82.pre, %42 ], [ %.pre82.pre83, %41 ]
  %.3 = phi i64 [ %45, %42 ], [ %.2, %41 ]
  %.not69 = icmp eq ptr %.1, null
  br i1 %.not69, label %51, label %47

47:                                               ; preds = %46
  %48 = getelementptr inbounds nuw %struct.pmix_info, ptr %.pre82, i64 %.3
  %49 = tail call i32 @PMIx_Info_xfer(ptr noundef %48, ptr noundef nonnull %.1) #18
  %50 = add nuw nsw i64 %.3, 1
  %.pre = load ptr, ptr %25, align 8, !tbaa !162
  br label %51

51:                                               ; preds = %47, %46
  %52 = phi ptr [ %.pre, %47 ], [ %.pre82, %46 ]
  %.4 = phi i64 [ %50, %47 ], [ %.3, %46 ]
  %53 = getelementptr inbounds nuw %struct.pmix_info, ptr %52, i64 %.4
  %54 = tail call i32 @PMIx_Info_load(ptr noundef %53, ptr noundef nonnull @.str.34, ptr noundef null, i16 noundef zeroext 1) #18
  %55 = load ptr, ptr %25, align 8, !tbaa !162
  %56 = load i64, ptr %33, align 8, !tbaa !164
  %57 = tail call i32 @PMIx_Notify_event(i32 noundef -147, ptr noundef nonnull getelementptr inbounds nuw (i8, ptr @pmix_globals, i64 4), i8 noundef zeroext 7, ptr noundef %55, i64 noundef %56, ptr noundef nonnull @release_info, ptr noundef nonnull %25) #18
  br label %._crit_edge.thread

._crit_edge.thread:                               ; preds = %2, %._crit_edge, %51, %24, %31
  ret void
}